; Function Attrs: nounwind uwtable
define internal i32 @alert_cb(ptr noundef %0, i8 noundef zeroext %1) #0 {
  %3 = icmp eq ptr %0, null
  br i1 %3, label %.thread, label %4

4:                                                ; preds = %2
  %5 = load i32, ptr %0, align 8, !tbaa !3
  %6 = icmp eq i32 %5, 0
  br i1 %6, label %.thread14, label %7

7:                                                ; preds = %4
  %8 = and i32 %5, 128
  %.not = icmp eq i32 %8, 0
  br i1 %.not, label %.thread, label %9

9:                                                ; preds = %7
  %10 = tail call ptr @ossl_quic_obj_get0_handshake_layer(ptr noundef nonnull %0) #5
  %11 = icmp eq ptr %10, null
  br i1 %11, label %.thread, label %.thread14

.thread14:                                        ; preds = %4, %9
  %12 = phi ptr [ %10, %9 ], [ %0, %4 ]
  %13 = getelementptr inbounds nuw i8, ptr %12, i64 328
  %14 = load ptr, ptr %13, align 8, !tbaa !104
  %15 = getelementptr inbounds nuw i8, ptr %12, i64 336
  %16 = load ptr, ptr %15, align 8, !tbaa !27
  %17 = tail call i32 %14(ptr noundef nonnull %0, i8 noundef zeroext %1, ptr noundef %16) #5
  br label %.thread

.thread:                                          ; preds = %7, %2, %9, %.thread14
  %.0 = phi i32 [ %17, %.thread14 ], [ 0, %9 ], [ 0, %2 ], [ 0, %7 ]
  ret i32 %.0
}